; Function Attrs: nounwind uwtable
define ptr @Hop_Exor(ptr noundef %0, ptr noundef %1, ptr noundef %2) local_unnamed_addr #0 {
  %4 = ptrtoint ptr %2 to i64
  %5 = xor i64 %4, 1
  %6 = inttoptr i64 %5 to ptr
  %7 = icmp eq ptr %1, %6
  br i1 %7, label %Hop_And.exit, label %8

8:                                                ; preds = %3
  %9 = icmp eq ptr %1, %2
  br i1 %9, label %10, label %16

10:                                               ; preds = %8
  %11 = getelementptr inbounds nuw i8, ptr %0, i64 24
  %12 = load ptr, ptr %11, align 8, !tbaa !20
  %13 = ptrtoint ptr %12 to i64
  %14 = xor i64 %13, 1
  %15 = inttoptr i64 %14 to ptr
  br label %Hop_And.exit

16:                                               ; preds = %8
  %17 = ptrtoint ptr %1 to i64
  %18 = and i64 %17, -2
  %19 = inttoptr i64 %18 to ptr
  %20 = getelementptr inbounds nuw i8, ptr %0, i64 24
  %21 = load ptr, ptr %20, align 8, !tbaa !20
  %22 = icmp eq ptr %21, %19
  br i1 %22, label %23, label %28

23:                                               ; preds = %16
  %24 = icmp eq ptr %1, %19
  br i1 %24, label %Hop_And.exit, label %25

25:                                               ; preds = %23
  %26 = or i64 %17, 1
  %27 = inttoptr i64 %26 to ptr
  br label %Hop_And.exit

28:                                               ; preds = %16
  %29 = and i64 %4, -2
  %30 = inttoptr i64 %29 to ptr
  %31 = icmp eq ptr %21, %30
  br i1 %31, label %32, label %38

32:                                               ; preds = %28
  %33 = icmp eq ptr %21, %6
  br i1 %33, label %Hop_And.exit, label %34

34:                                               ; preds = %32
  %35 = ptrtoint ptr %21 to i64
  %36 = xor i64 %35, 1
  %37 = inttoptr i64 %36 to ptr
  br label %Hop_And.exit

38:                                               ; preds = %28
  %39 = getelementptr inbounds nuw i8, ptr %0, i64 64
  %40 = load i32, ptr %39, align 8
  %41 = and i32 %40, -8
  %42 = or disjoint i32 %41, 4
  store i32 %42, ptr %39, align 8
  %43 = getelementptr inbounds nuw i8, ptr %19, i64 36
  %44 = load i32, ptr %43, align 4, !tbaa !21
  %45 = getelementptr inbounds nuw i8, ptr %30, i64 36
  %46 = load i32, ptr %45, align 4, !tbaa !21
  %47 = icmp slt i32 %44, %46
  %spec.select.i.i = select i1 %47, ptr %1, ptr %6
  %spec.select14.i.i = select i1 %47, ptr %6, ptr %1
  %48 = getelementptr inbounds nuw i8, ptr %0, i64 48
  store ptr %spec.select.i.i, ptr %48, align 8, !tbaa !22
  %49 = getelementptr inbounds nuw i8, ptr %0, i64 56
  store ptr %spec.select14.i.i, ptr %49, align 8, !tbaa !23
  %50 = getelementptr inbounds nuw i8, ptr %0, i64 32
  %51 = tail call ptr @Hop_TableLookup(ptr noundef nonnull %0, ptr noundef nonnull %50) #2
  %.not.i = icmp eq ptr %51, null
  br i1 %.not.i, label %52, label %Hop_And.exit

52:                                               ; preds = %38
  %53 = tail call ptr @Hop_ObjCreate(ptr noundef nonnull %0, ptr noundef nonnull %50) #2
  br label %Hop_And.exit

Hop_And.exit:                                     ; preds = %3, %10, %23, %25, %32, %34, %38, %52
  %.0.i = phi ptr [ %15, %10 ], [ %53, %52 ], [ %1, %3 ], [ %27, %25 ], [ %6, %23 ], [ %37, %34 ], [ %1, %32 ], [ %51, %38 ]
  %54 = ptrtoint ptr %1 to i64
  %55 = xor i64 %54, 1
  %56 = inttoptr i64 %55 to ptr
  %57 = icmp eq ptr %2, %56
  br i1 %57, label %Hop_And.exit11, label %58

58:                                               ; preds = %Hop_And.exit
  %59 = icmp eq ptr %1, %2
  br i1 %59, label %60, label %66

60:                                               ; preds = %58
  %61 = getelementptr inbounds nuw i8, ptr %0, i64 24
  %62 = load ptr, ptr %61, align 8, !tbaa !20
  %63 = ptrtoint ptr %62 to i64
  %64 = xor i64 %63, 1
  %65 = inttoptr i64 %64 to ptr
  br label %Hop_And.exit11

66:                                               ; preds = %58
  %67 = and i64 %54, -2
  %68 = inttoptr i64 %67 to ptr
  %69 = getelementptr inbounds nuw i8, ptr %0, i64 24
  %70 = load ptr, ptr %69, align 8, !tbaa !20
  %71 = icmp eq ptr %70, %68
  br i1 %71, label %72, label %77

72:                                               ; preds = %66
  %73 = icmp eq i64 %55, %67
  br i1 %73, label %Hop_And.exit11, label %74

74:                                               ; preds = %72
  %75 = or i64 %54, 1
  %76 = inttoptr i64 %75 to ptr
  br label %Hop_And.exit11

77:                                               ; preds = %66
  %78 = and i64 %4, -2
  %79 = inttoptr i64 %78 to ptr
  %80 = icmp eq ptr %70, %79
  br i1 %80, label %81, label %86

81:                                               ; preds = %77
  %82 = icmp eq ptr %2, %79
  br i1 %82, label %Hop_And.exit11, label %83

83:                                               ; preds = %81
  %84 = or i64 %4, 1
  %85 = inttoptr i64 %84 to ptr
  br label %Hop_And.exit11

86:                                               ; preds = %77
  %87 = getelementptr inbounds nuw i8, ptr %0, i64 64
  %88 = load i32, ptr %87, align 8
  %89 = and i32 %88, -8
  %90 = or disjoint i32 %89, 4
  store i32 %90, ptr %87, align 8
  %91 = getelementptr inbounds nuw i8, ptr %68, i64 36
  %92 = load i32, ptr %91, align 4, !tbaa !21
  %93 = getelementptr inbounds nuw i8, ptr %79, i64 36
  %94 = load i32, ptr %93, align 4, !tbaa !21
  %95 = icmp slt i32 %92, %94
  %spec.select.i.i7 = select i1 %95, ptr %56, ptr %2
  %spec.select14.i.i8 = select i1 %95, ptr %2, ptr %56
  %96 = getelementptr inbounds nuw i8, ptr %0, i64 48
  store ptr %spec.select.i.i7, ptr %96, align 8, !tbaa !22
  %97 = getelementptr inbounds nuw i8, ptr %0, i64 56
  store ptr %spec.select14.i.i8, ptr %97, align 8, !tbaa !23
  %98 = getelementptr inbounds nuw i8, ptr %0, i64 32
  %99 = tail call ptr @Hop_TableLookup(ptr noundef nonnull %0, ptr noundef nonnull %98) #2
  %.not.i9 = icmp eq ptr %99, null
  br i1 %.not.i9, label %100, label %Hop_And.exit11

100:                                              ; preds = %86
  %101 = tail call ptr @Hop_ObjCreate(ptr noundef nonnull %0, ptr noundef nonnull %98) #2
  br label %Hop_And.exit11

Hop_And.exit11:                                   ; preds = %Hop_And.exit, %60, %72, %74, %81, %83, %86, %100
  %.0.i10 = phi ptr [ %65, %60 ], [ %101, %100 ], [ %2, %Hop_And.exit ], [ %76, %74 ], [ %2, %72 ], [ %85, %83 ], [ %56, %81 ], [ %99, %86 ]
  %102 = ptrtoint ptr %.0.i to i64
  %103 = xor i64 %102, 1
  %104 = inttoptr i64 %103 to ptr
  %105 = ptrtoint ptr %.0.i10 to i64
  %106 = xor i64 %105, 1
  %107 = inttoptr i64 %106 to ptr
  %108 = icmp eq ptr %.0.i, %.0.i10
  br i1 %108, label %Hop_Or.exit, label %109

109:                                              ; preds = %Hop_And.exit11
  %110 = icmp eq ptr %.0.i10, %104
  br i1 %110, label %111, label %117

111:                                              ; preds = %109
  %112 = getelementptr inbounds nuw i8, ptr %0, i64 24
  %113 = load ptr, ptr %112, align 8, !tbaa !20
  %114 = ptrtoint ptr %113 to i64
  %115 = xor i64 %114, 1
  %116 = inttoptr i64 %115 to ptr
  br label %Hop_Or.exit

117:                                              ; preds = %109
  %118 = and i64 %102, -2
  %119 = inttoptr i64 %118 to ptr
  %120 = getelementptr inbounds nuw i8, ptr %0, i64 24
  %121 = load ptr, ptr %120, align 8, !tbaa !20
  %122 = icmp eq ptr %121, %119
  br i1 %122, label %123, label %128

123:                                              ; preds = %117
  %124 = icmp eq i64 %103, %118
  br i1 %124, label %Hop_Or.exit, label %125

125:                                              ; preds = %123
  %126 = or i64 %102, 1
  %127 = inttoptr i64 %126 to ptr
  br label %Hop_Or.exit

128:                                              ; preds = %117
  %129 = and i64 %105, -2
  %130 = inttoptr i64 %129 to ptr
  %131 = icmp eq ptr %121, %130
  br i1 %131, label %132, label %138

132:                                              ; preds = %128
  %133 = icmp eq ptr %121, %107
  br i1 %133, label %Hop_Or.exit, label %134

134:                                              ; preds = %132
  %135 = ptrtoint ptr %121 to i64
  %136 = xor i64 %135, 1
  %137 = inttoptr i64 %136 to ptr
  br label %Hop_Or.exit

138:                                              ; preds = %128
  %139 = getelementptr inbounds nuw i8, ptr %0, i64 64
  %140 = load i32, ptr %139, align 8
  %141 = and i32 %140, -8
  %142 = or disjoint i32 %141, 4
  store i32 %142, ptr %139, align 8
  %143 = getelementptr inbounds nuw i8, ptr %119, i64 36
  %144 = load i32, ptr %143, align 4, !tbaa !21
  %145 = getelementptr inbounds nuw i8, ptr %130, i64 36
  %146 = load i32, ptr %145, align 4, !tbaa !21
  %147 = icmp slt i32 %144, %146
  %spec.select.i.i.i = select i1 %147, ptr %104, ptr %107
  %spec.select14.i.i.i = select i1 %147, ptr %107, ptr %104
  %148 = getelementptr inbounds nuw i8, ptr %0, i64 48
  store ptr %spec.select.i.i.i, ptr %148, align 8, !tbaa !22
  %149 = getelementptr inbounds nuw i8, ptr %0, i64 56
  store ptr %spec.select14.i.i.i, ptr %149, align 8, !tbaa !23
  %150 = getelementptr inbounds nuw i8, ptr %0, i64 32
  %151 = tail call ptr @Hop_TableLookup(ptr noundef nonnull %0, ptr noundef nonnull %150) #2
  %.not.i.i = icmp eq ptr %151, null
  br i1 %.not.i.i, label %152, label %Hop_Or.exit

152:                                              ; preds = %138
  %153 = tail call ptr @Hop_ObjCreate(ptr noundef nonnull %0, ptr noundef nonnull %150) #2
  br label %Hop_Or.exit

Hop_Or.exit:                                      ; preds = %Hop_And.exit11, %111, %123, %125, %132, %134, %138, %152
  %.0.i.i = phi ptr [ %116, %111 ], [ %153, %152 ], [ %104, %Hop_And.exit11 ], [ %127, %125 ], [ %107, %123 ], [ %137, %134 ], [ %104, %132 ], [ %151, %138 ]
  %154 = ptrtoint ptr %.0.i.i to i64
  %155 = xor i64 %154, 1
  %156 = inttoptr i64 %155 to ptr
  ret ptr %156
}